target datalayout = "e-m:e-p270:32:32-p271:32:32-p272:64:64-i64:64-i128:128-f80:128-n8:16:32:64-S128"
target triple = "x86_64-pc-linux-gnu"

%struct.tls_buffer_st = type { ptr, i64, i64, i64, i64, i32, i32 }
%struct.tls_rl_record_st = type { i32, i32, i64, i64, i64, ptr, ptr, ptr, i16, [8 x i8] }
%struct.ossl_record_layer_st = type { ptr, ptr, i32, i32, i32, i32, i32, ptr, i16, ptr, ptr, ptr, i64, i32, [33 x %struct.tls_buffer_st], i64, i64, %struct.tls_buffer_st, [32 x %struct.tls_rl_record_st], i64, i64, i64, i32, ptr, i64, [8 x i8], i32, i32, i64, i32, ptr, ptr, i64, ptr, ptr, i32, i32, i32, i64, i64, i64, [64 x i8], i32, i32, i32, ptr, ptr, i32, i32, i64, ptr, ptr, %struct.dtls_bitmap_st, %struct.dtls_bitmap_st, i32, ptr, ptr, ptr, ptr, ptr, i64, ptr }
%struct.dtls_bitmap_st = type { i64, [8 x i8] }

@.str = private unnamed_addr constant [43 x i8] c"../openssl/ssl/record/methods/tls_common.c\00", align 1
@__func__.tls_increment_sequence_ctr = private unnamed_addr constant [27 x i8] c"tls_increment_sequence_ctr\00", align 1

; Function Attrs: nounwind uwtable
define i32 @tls_increment_sequence_ctr(ptr noundef %0) #0 {
  %2 = alloca i32, align 4
  %3 = alloca ptr, align 8
  %4 = alloca i32, align 4
  %5 = alloca i32, align 4
  store ptr %0, ptr %3, align 8, !tbaa !16
  call void @llvm.lifetime.start.p0(i64 4, ptr %4) #10
  store i32 8, ptr %4, align 4, !tbaa !18
  br label %6

6:                                                ; preds = %29, %1
  %7 = load i32, ptr %4, align 4, !tbaa !18
  %8 = icmp sgt i32 %7, 0
  br i1 %8, label %9, label %32

9:                                                ; preds = %6
  %10 = load ptr, ptr %3, align 8, !tbaa !16
  %11 = getelementptr inbounds nuw %struct.ossl_record_layer_st, ptr %10, i32 0, i32 25
  %12 = load i32, ptr %4, align 4, !tbaa !18
  %13 = sub nsw i32 %12, 1
  %14 = sext i32 %13 to i64
  %15 = getelementptr inbounds [8 x i8], ptr %11, i64 0, i64 %14
  %16 = load i8, ptr %15, align 1, !tbaa !91
  %17 = add i8 %16, 1
  store i8 %17, ptr %15, align 1, !tbaa !91
  %18 = load ptr, ptr %3, align 8, !tbaa !16
  %19 = getelementptr inbounds nuw %struct.ossl_record_layer_st, ptr %18, i32 0, i32 25
  %20 = load i32, ptr %4, align 4, !tbaa !18
  %21 = sub nsw i32 %20, 1
  %22 = sext i32 %21 to i64
  %23 = getelementptr inbounds [8 x i8], ptr %19, i64 0, i64 %22
  %24 = load i8, ptr %23, align 1, !tbaa !91
  %25 = zext i8 %24 to i32
  %26 = icmp ne i32 %25, 0
  br i1 %26, label %27, label %28

27:                                               ; preds = %9
  br label %32

28:                                               ; preds = %9
  br label %29

29:                                               ; preds = %28
  %30 = load i32, ptr %4, align 4, !tbaa !18
  %31 = add nsw i32 %30, -1
  store i32 %31, ptr %4, align 4, !tbaa !18
  br label %6, !llvm.loop !181

32:                                               ; preds = %27, %6
  %33 = load i32, ptr %4, align 4, !tbaa !18
  %34 = icmp eq i32 %33, 0
  br i1 %34, label %35, label %37

35:                                               ; preds = %32
  call void @ERR_new()
  call void @ERR_set_debug(ptr noundef @.str, i32 noundef 2089, ptr noundef @__func__.tls_increment_sequence_ctr)
  %36 = load ptr, ptr %3, align 8, !tbaa !16
  call void (ptr, i32, i32, ptr, ...) @ossl_rlayer_fatal(ptr noundef %36, i32 noundef 80, i32 noundef 327, ptr noundef null)
  store i32 0, ptr %2, align 4
  store i32 1, ptr %5, align 4
  br label %38

37:                                               ; preds = %32
  store i32 1, ptr %2, align 4
  store i32 1, ptr %5, align 4
  br label %38

38:                                               ; preds = %37, %35
  call void @llvm.lifetime.end.p0(i64 4, ptr %4) #10
  %39 = load i32, ptr %2, align 4
  ret i32 %39
}