; Function Attrs: nounwind uwtable
define range(i32 0, 2) i32 @tls_increment_sequence_ctr(ptr noundef captures(none) %0) #0 {
  %2 = getelementptr inbounds nuw i8, ptr %0, i64 4096
  br label %3

3:                                                ; preds = %4, %1
  %indvars.iv = phi i64 [ %indvars.iv.next, %4 ], [ 8, %1 ]
  %.not12 = icmp eq i64 %indvars.iv, 0
  br i1 %.not12, label %8, label %4

4:                                                ; preds = %3
  %indvars.iv.next = add nsw i64 %indvars.iv, -1
  %5 = getelementptr inbounds nuw [8 x i8], ptr %2, i64 0, i64 %indvars.iv.next
  %6 = load i8, ptr %5, align 1, !tbaa !59
  %7 = add i8 %6, 1
  store i8 %7, ptr %5, align 1, !tbaa !59
  %.not = icmp eq i8 %7, 0
  br i1 %.not, label %3, label %.thread, !llvm.loop !149

8:                                                ; preds = %3
  tail call void @ERR_new() #13
  tail call void @ERR_set_debug(ptr noundef nonnull @.str, i32 noundef 2089, ptr noundef nonnull @__func__.tls_increment_sequence_ctr) #13
  tail call void (ptr, i32, i32, ptr, ...) @ossl_rlayer_fatal(ptr noundef %0, i32 noundef 80, i32 noundef 327, ptr noundef null)
  br label %.thread

.thread:                                          ; preds = %4, %8
  %.08 = phi i32 [ 0, %8 ], [ 1, %4 ]
  ret i32 %.08
}